; Function Attrs: nounwind uwtable
define zeroext i8 @l_Lean_PrettyPrinter_Delaborator_TopDownAnalyze_hasLevelMVarAtCurrDepth___lambda__1(ptr noundef %0, ptr noundef %1) local_unnamed_addr #1 {
  %3 = ptrtoint ptr %0 to i64
  %4 = and i64 %3, 1
  %.not = icmp eq i64 %4, 0
  br i1 %.not, label %5, label %lean_inc.exit12

5:                                                ; preds = %2
  %.val.i = load i32, ptr %0, align 4, !tbaa !8
  %6 = icmp sgt i32 %.val.i, 0
  br i1 %6, label %7, label %9, !prof !13

7:                                                ; preds = %5
  %8 = add nuw i32 %.val.i, 1
  store i32 %8, ptr %0, align 4, !tbaa !8
  br label %lean_inc.exit12

9:                                                ; preds = %5
  %.not.i19 = icmp eq i32 %.val.i, 0
  br i1 %.not.i19, label %lean_inc.exit12, label %10

10:                                               ; preds = %9
  tail call void @lean_inc_ref_cold(ptr noundef nonnull %0) #7
  br label %lean_inc.exit12

lean_inc.exit12:                                  ; preds = %10, %9, %7, %2
  %11 = tail call ptr @l_Lean_MetavarContext_findLevelDepth_x3f(ptr noundef %0, ptr noundef %1) #7
  %12 = getelementptr inbounds nuw i8, ptr %0, i64 8
  %13 = load ptr, ptr %12, align 8, !tbaa !11
  %14 = ptrtoint ptr %13 to i64
  %15 = and i64 %14, 1
  %.not23 = icmp eq i64 %15, 0
  br i1 %.not23, label %16, label %lean_inc.exit

16:                                               ; preds = %lean_inc.exit12
  %.val.i20 = load i32, ptr %13, align 4, !tbaa !8
  %17 = icmp sgt i32 %.val.i20, 0
  br i1 %17, label %18, label %20, !prof !13

18:                                               ; preds = %16
  %19 = add nuw i32 %.val.i20, 1
  store i32 %19, ptr %13, align 4, !tbaa !8
  br label %lean_inc.exit

20:                                               ; preds = %16
  %.not.i21 = icmp eq i32 %.val.i20, 0
  br i1 %.not.i21, label %lean_inc.exit, label %21

21:                                               ; preds = %20
  tail call void @lean_inc_ref_cold(ptr noundef nonnull %13) #7
  br label %lean_inc.exit

lean_inc.exit:                                    ; preds = %21, %20, %18, %lean_inc.exit12
  br i1 %.not, label %22, label %lean_dec.exit14

22:                                               ; preds = %lean_inc.exit
  %23 = load i32, ptr %0, align 4, !tbaa !8
  %24 = icmp sgt i32 %23, 1
  br i1 %24, label %25, label %27, !prof !13

25:                                               ; preds = %22
  %26 = add nsw i32 %23, -1
  store i32 %26, ptr %0, align 4, !tbaa !8
  br label %lean_dec.exit14

27:                                               ; preds = %22
  %.not.i = icmp eq i32 %23, 0
  br i1 %.not.i, label %lean_dec.exit14, label %28

28:                                               ; preds = %27
  tail call void @lean_dec_ref_cold(ptr noundef nonnull %0) #7
  br label %lean_dec.exit14

lean_dec.exit14:                                  ; preds = %28, %27, %25, %lean_inc.exit
  tail call void @lean_inc_heartbeat() #7
  %29 = tail call noalias ptr @mi_malloc_small(i64 noundef 16) #7
  %30 = icmp eq ptr %29, null
  br i1 %30, label %31, label %lean_alloc_ctor.exit

31:                                               ; preds = %lean_dec.exit14
  tail call void @lean_internal_panic_out_of_memory() #8
  unreachable

lean_alloc_ctor.exit:                             ; preds = %lean_dec.exit14
  %32 = getelementptr inbounds nuw i8, ptr %29, i64 4
  store i32 1, ptr %29, align 4, !tbaa !8
  store i32 16842768, ptr %32, align 4
  %33 = getelementptr inbounds nuw i8, ptr %29, i64 8
  store ptr %13, ptr %33, align 8, !tbaa !11
  %34 = tail call zeroext i8 @l_Option_beqOption____x40_Init_Data_Option_Basic___hyg_160____at_Lean_Meta_beqInfoCacheKey____x40_Lean_Meta_Basic___hyg_1324____spec__1(ptr noundef %11, ptr noundef nonnull %29) #7
  %35 = ptrtoint ptr %29 to i64
  %36 = and i64 %35, 1
  %.not24 = icmp eq i64 %36, 0
  br i1 %.not24, label %37, label %lean_dec.exit13

37:                                               ; preds = %lean_alloc_ctor.exit
  %38 = load i32, ptr %29, align 4, !tbaa !8
  %39 = icmp sgt i32 %38, 1
  br i1 %39, label %40, label %42, !prof !13

40:                                               ; preds = %37
  %41 = add nsw i32 %38, -1
  store i32 %41, ptr %29, align 4, !tbaa !8
  br label %lean_dec.exit13

42:                                               ; preds = %37
  %.not.i15 = icmp eq i32 %38, 0
  br i1 %.not.i15, label %lean_dec.exit13, label %43

43:                                               ; preds = %42
  tail call void @lean_dec_ref_cold(ptr noundef nonnull %29) #7
  br label %lean_dec.exit13

lean_dec.exit13:                                  ; preds = %43, %42, %40, %lean_alloc_ctor.exit
  %44 = ptrtoint ptr %11 to i64
  %45 = and i64 %44, 1
  %.not25 = icmp eq i64 %45, 0
  br i1 %.not25, label %46, label %lean_dec.exit

46:                                               ; preds = %lean_dec.exit13
  %47 = load i32, ptr %11, align 4, !tbaa !8
  %48 = icmp sgt i32 %47, 1
  br i1 %48, label %49, label %51, !prof !13

49:                                               ; preds = %46
  %50 = add nsw i32 %47, -1
  store i32 %50, ptr %11, align 4, !tbaa !8
  br label %lean_dec.exit

51:                                               ; preds = %46
  %.not.i17 = icmp eq i32 %47, 0
  br i1 %.not.i17, label %lean_dec.exit, label %52

52:                                               ; preds = %51
  tail call void @lean_dec_ref_cold(ptr noundef nonnull %11) #7
  br label %lean_dec.exit

lean_dec.exit:                                    ; preds = %52, %51, %49, %lean_dec.exit13
  ret i8 %34
}